target datalayout = "e-m:e-p270:32:32-p271:32:32-p272:64:64-i64:64-i128:128-f80:128-n8:16:32:64-S128"
target triple = "x86_64-pc-linux-gnu"

%struct.Msat_Solver_t_ = type { i32, i32, ptr, ptr, double, double, ptr, ptr, double, double, ptr, ptr, ptr, i32, i32, ptr, ptr, ptr, ptr, ptr, ptr, i32, double, i32, double, ptr, ptr, ptr, ptr, i32, ptr, ptr, ptr, ptr, %struct.Msat_SolverStats_t_, i32, i32, i32, i32, i32, i32 }
%struct.Msat_SolverStats_t_ = type { i64, i64, i64, i64, i64, i64 }

@.str = private unnamed_addr constant [45 x i8] c"C solver (%d vars; %d clauses; %d learned):\0A\00", align 1
@.str.1 = private unnamed_addr constant [20 x i8] c"starts        : %d\0A\00", align 1
@.str.2 = private unnamed_addr constant [20 x i8] c"conflicts     : %d\0A\00", align 1
@.str.3 = private unnamed_addr constant [20 x i8] c"decisions     : %d\0A\00", align 1
@.str.4 = private unnamed_addr constant [20 x i8] c"propagations  : %d\0A\00", align 1
@.str.5 = private unnamed_addr constant [20 x i8] c"inspects      : %d\0A\00", align 1

; Function Attrs: nounwind uwtable
define void @Msat_SolverPrintStats(ptr noundef %0) #0 {
  %2 = alloca ptr, align 8
  store ptr %0, ptr %2, align 8, !tbaa !3
  %3 = load ptr, ptr %2, align 8, !tbaa !3
  %4 = getelementptr inbounds nuw %struct.Msat_Solver_t_, ptr %3, i32 0, i32 13
  %5 = load i32, ptr %4, align 8, !tbaa !10
  %6 = load ptr, ptr %2, align 8, !tbaa !3
  %7 = getelementptr inbounds nuw %struct.Msat_Solver_t_, ptr %6, i32 0, i32 2
  %8 = load ptr, ptr %7, align 8, !tbaa !30
  %9 = call i32 @Msat_ClauseVecReadSize(ptr noundef %8)
  %10 = load ptr, ptr %2, align 8, !tbaa !3
  %11 = getelementptr inbounds nuw %struct.Msat_Solver_t_, ptr %10, i32 0, i32 3
  %12 = load ptr, ptr %11, align 8, !tbaa !35
  %13 = call i32 @Msat_ClauseVecReadSize(ptr noundef %12)
  %14 = call i32 (ptr, ...) @printf(ptr noundef @.str, i32 noundef %5, i32 noundef %9, i32 noundef %13)
  %15 = load ptr, ptr %2, align 8, !tbaa !3
  %16 = getelementptr inbounds nuw %struct.Msat_Solver_t_, ptr %15, i32 0, i32 34
  %17 = getelementptr inbounds nuw %struct.Msat_SolverStats_t_, ptr %16, i32 0, i32 0
  %18 = load i64, ptr %17, align 8, !tbaa !36
  %19 = trunc i64 %18 to i32
  %20 = call i32 (ptr, ...) @printf(ptr noundef @.str.1, i32 noundef %19)
  %21 = load ptr, ptr %2, align 8, !tbaa !3
  %22 = getelementptr inbounds nuw %struct.Msat_Solver_t_, ptr %21, i32 0, i32 34
  %23 = getelementptr inbounds nuw %struct.Msat_SolverStats_t_, ptr %22, i32 0, i32 4
  %24 = load i64, ptr %23, align 8, !tbaa !37
  %25 = trunc i64 %24 to i32
  %26 = call i32 (ptr, ...) @printf(ptr noundef @.str.2, i32 noundef %25)
  %27 = load ptr, ptr %2, align 8, !tbaa !3
  %28 = getelementptr inbounds nuw %struct.Msat_Solver_t_, ptr %27, i32 0, i32 34
  %29 = getelementptr inbounds nuw %struct.Msat_SolverStats_t_, ptr %28, i32 0, i32 1
  %30 = load i64, ptr %29, align 8, !tbaa !38
  %31 = trunc i64 %30 to i32
  %32 = call i32 (ptr, ...) @printf(ptr noundef @.str.3, i32 noundef %31)
  %33 = load ptr, ptr %2, align 8, !tbaa !3
  %34 = getelementptr inbounds nuw %struct.Msat_Solver_t_, ptr %33, i32 0, i32 34
  %35 = getelementptr inbounds nuw %struct.Msat_SolverStats_t_, ptr %34, i32 0, i32 2
  %36 = load i64, ptr %35, align 8, !tbaa !39
  %37 = trunc i64 %36 to i32
  %38 = call i32 (ptr, ...) @printf(ptr noundef @.str.4, i32 noundef %37)
  %39 = load ptr, ptr %2, align 8, !tbaa !3
  %40 = getelementptr inbounds nuw %struct.Msat_Solver_t_, ptr %39, i32 0, i32 34
  %41 = getelementptr inbounds nuw %struct.Msat_SolverStats_t_, ptr %40, i32 0, i32 3
  %42 = load i64, ptr %41, align 8, !tbaa !40
  %43 = trunc i64 %42 to i32
  %44 = call i32 (ptr, ...) @printf(ptr noundef @.str.5, i32 noundef %43)
  ret void
}