; Function Attrs: nounwind uwtable
define void @Msat_SolverPrintStats(ptr noundef readonly captures(none) %0) local_unnamed_addr #0 {
  %2 = getelementptr inbounds nuw i8, ptr %0, i64 96
  %3 = load i32, ptr %2, align 8, !tbaa !3
  %4 = getelementptr inbounds nuw i8, ptr %0, i64 8
  %5 = load ptr, ptr %4, align 8, !tbaa !27
  %6 = tail call i32 @Msat_ClauseVecReadSize(ptr noundef %5) #8
  %7 = getelementptr inbounds nuw i8, ptr %0, i64 16
  %8 = load ptr, ptr %7, align 8, !tbaa !31
  %9 = tail call i32 @Msat_ClauseVecReadSize(ptr noundef %8) #8
  %10 = tail call i32 (ptr, ...) @printf(ptr noundef nonnull dereferenceable(1) @.str, i32 noundef %3, i32 noundef %6, i32 noundef %9)
  %11 = getelementptr inbounds nuw i8, ptr %0, i64 256
  %12 = load i64, ptr %11, align 8, !tbaa !32
  %13 = trunc i64 %12 to i32
  %14 = tail call i32 (ptr, ...) @printf(ptr noundef nonnull dereferenceable(1) @.str.1, i32 noundef %13)
  %15 = getelementptr inbounds nuw i8, ptr %0, i64 288
  %16 = load i64, ptr %15, align 8, !tbaa !33
  %17 = trunc i64 %16 to i32
  %18 = tail call i32 (ptr, ...) @printf(ptr noundef nonnull dereferenceable(1) @.str.2, i32 noundef %17)
  %19 = getelementptr inbounds nuw i8, ptr %0, i64 264
  %20 = load i64, ptr %19, align 8, !tbaa !34
  %21 = trunc i64 %20 to i32
  %22 = tail call i32 (ptr, ...) @printf(ptr noundef nonnull dereferenceable(1) @.str.3, i32 noundef %21)
  %23 = getelementptr inbounds nuw i8, ptr %0, i64 272
  %24 = load i64, ptr %23, align 8, !tbaa !35
  %25 = trunc i64 %24 to i32
  %26 = tail call i32 (ptr, ...) @printf(ptr noundef nonnull dereferenceable(1) @.str.4, i32 noundef %25)
  %27 = getelementptr inbounds nuw i8, ptr %0, i64 280
  %28 = load i64, ptr %27, align 8, !tbaa !36
  %29 = trunc i64 %28 to i32
  %30 = tail call i32 (ptr, ...) @printf(ptr noundef nonnull dereferenceable(1) @.str.5, i32 noundef %29)
  ret void
}